; ModuleID = '17/228.c'
source_filename = "17/228.c"
target datalayout = "e-m:e-p270:32:32-p271:32:32-p272:64:64-i64:64-f80:128-n8:16:32:64-S128"
target triple = "x86_64-pc-linux-gnu"

@.str = private unnamed_addr constant [3 x i8] c"%s\00", align 1
@.str.1 = private unnamed_addr constant [7 x i8] c"%s\0A%s\0A\00", align 1

; Function Attrs: noinline nounwind uwtable
define dso_local i32 @main() #0 {
  %1 = alloca i32, align 4
  %2 = alloca [500 x i8], align 16
  %3 = alloca [500 x i8], align 16
  %4 = alloca i32, align 4
  %5 = alloca i32, align 4
  %6 = alloca i32, align 4
  %7 = alloca i32, align 4
  %8 = alloca [500 x i32], align 16
  %9 = alloca i32, align 4
  store i32 0, i32* %1, align 4
  %10 = bitcast [500 x i8]* %3 to i8*
  call void @llvm.memset.p0i8.i64(i8* align 16 %10, i8 0, i64 500, i1 false)
  %11 = bitcast [500 x i32]* %8 to i8*
  call void @llvm.memset.p0i8.i64(i8* align 16 %11, i8 0, i64 2000, i1 false)
  store i32 0, i32* %9, align 4
  store i32 0, i32* %5, align 4
  br label %12

12:                                               ; preds = %22, %0
  %13 = load i32, i32* %5, align 4
  %14 = icmp slt i32 %13, 500
  br i1 %14, label %15, label %25

15:                                               ; preds = %12
  %16 = load i32, i32* %5, align 4
  %17 = sext i32 %16 to i64
  %18 = getelementptr inbounds [500 x i8], [500 x i8]* %2, i64 0, i64 %17
  store i8 0, i8* %18, align 1
  %19 = load i32, i32* %5, align 4
  %20 = sext i32 %19 to i64
  %21 = getelementptr inbounds [500 x i32], [500 x i32]* %8, i64 0, i64 %20
  store i32 0, i32* %21, align 4
  br label %22

22:                                               ; preds = %15
  %23 = load i32, i32* %5, align 4
  %24 = add nsw i32 %23, 1
  store i32 %24, i32* %5, align 4
  br label %12

25:                                               ; preds = %12
  br label %26

26:                                               ; preds = %166, %25
  %27 = getelementptr inbounds [500 x i8], [500 x i8]* %2, i64 0, i64 0
  %28 = call i32 (i8*, ...) @__isoc99_scanf(i8* getelementptr inbounds ([3 x i8], [3 x i8]* @.str, i64 0, i64 0), i8* %27)
  %29 = icmp ne i32 %28, -1
  br i1 %29, label %30, label %167

30:                                               ; preds = %26
  store i32 0, i32* %5, align 4
  br label %31

31:                                               ; preds = %38, %30
  %32 = load i32, i32* %5, align 4
  %33 = icmp slt i32 %32, 500
  br i1 %33, label %34, label %41

34:                                               ; preds = %31
  %35 = load i32, i32* %5, align 4
  %36 = sext i32 %35 to i64
  %37 = getelementptr inbounds [500 x i8], [500 x i8]* %3, i64 0, i64 %36
  store i8 0, i8* %37, align 1
  br label %38

38:                                               ; preds = %34
  %39 = load i32, i32* %5, align 4
  %40 = add nsw i32 %39, 1
  store i32 %40, i32* %5, align 4
  br label %31

41:                                               ; preds = %31
  store i32 0, i32* %5, align 4
  br label %42

42:                                               ; preds = %52, %41
  %43 = load i32, i32* %5, align 4
  %44 = sext i32 %43 to i64
  %45 = getelementptr inbounds [500 x i8], [500 x i8]* %2, i64 0, i64 0
  %46 = call i64 @strlen(i8* %45) #4
  %47 = icmp ult i64 %44, %46
  br i1 %47, label %48, label %55

48:                                               ; preds = %42
  %49 = load i32, i32* %5, align 4
  %50 = sext i32 %49 to i64
  %51 = getelementptr inbounds [500 x i8], [500 x i8]* %3, i64 0, i64 %50
  store i8 32, i8* %51, align 1
  br label %52

52:                                               ; preds = %48
  %53 = load i32, i32* %5, align 4
  %54 = add nsw i32 %53, 1
  store i32 %54, i32* %5, align 4
  br label %42

55:                                               ; preds = %42
  store i32 0, i32* %5, align 4
  br label %56

56:                                               ; preds = %101, %55
  %57 = load i32, i32* %5, align 4
  %58 = sext i32 %57 to i64
  %59 = getelementptr inbounds [500 x i8], [500 x i8]* %2, i64 0, i64 0
  %60 = call i64 @strlen(i8* %59) #4
  %61 = icmp ult i64 %58, %60
  br i1 %61, label %62, label %104

62:                                               ; preds = %56
  %63 = load i32, i32* %5, align 4
  %64 = sext i32 %63 to i64
  %65 = getelementptr inbounds [500 x i8], [500 x i8]* %2, i64 0, i64 %64
  %66 = load i8, i8* %65, align 1
  %67 = sext i8 %66 to i32
  %68 = icmp eq i32 %67, 41
  br i1 %68, label %69, label %100

69:                                               ; preds = %62
  %70 = load i32, i32* %5, align 4
  %71 = sub nsw i32 %70, 1
  store i32 %71, i32* %7, align 4
  br label %72

72:                                               ; preds = %96, %69
  %73 = load i32, i32* %7, align 4
  %74 = icmp sge i32 %73, 0
  br i1 %74, label %75, label %99

75:                                               ; preds = %72
  %76 = load i32, i32* %7, align 4
  %77 = sext i32 %76 to i64
  %78 = getelementptr inbounds [500 x i8], [500 x i8]* %2, i64 0, i64 %77
  %79 = load i8, i8* %78, align 1
  %80 = sext i8 %79 to i32
  %81 = icmp eq i32 %80, 40
  br i1 %81, label %82, label %95

82:                                               ; preds = %75
  %83 = load i32, i32* %7, align 4
  %84 = sext i32 %83 to i64
  %85 = getelementptr inbounds [500 x i32], [500 x i32]* %8, i64 0, i64 %84
  %86 = load i32, i32* %85, align 4
  %87 = icmp eq i32 %86, 0
  br i1 %87, label %88, label %95

88:                                               ; preds = %82
  %89 = load i32, i32* %7, align 4
  %90 = sext i32 %89 to i64
  %91 = getelementptr inbounds [500 x i32], [500 x i32]* %8, i64 0, i64 %90
  store i32 1, i32* %91, align 4
  %92 = load i32, i32* %5, align 4
  %93 = sext i32 %92 to i64
  %94 = getelementptr inbounds [500 x i32], [500 x i32]* %8, i64 0, i64 %93
  store i32 1, i32* %94, align 4
  br label %99

95:                                               ; preds = %82, %75
  br label %96

96:                                               ; preds = %95
  %97 = load i32, i32* %7, align 4
  %98 = add nsw i32 %97, -1
  store i32 %98, i32* %7, align 4
  br label %72

99:                                               ; preds = %88, %72
  br label %100

100:                                              ; preds = %99, %62
  br label %101

101:                                              ; preds = %100
  %102 = load i32, i32* %5, align 4
  %103 = add nsw i32 %102, 1
  store i32 %103, i32* %5, align 4
  br label %56

104:                                              ; preds = %56
  store i32 0, i32* %5, align 4
  br label %105

105:                                              ; preds = %146, %104
  %106 = load i32, i32* %5, align 4
  %107 = sext i32 %106 to i64
  %108 = getelementptr inbounds [500 x i8], [500 x i8]* %2, i64 0, i64 0
  %109 = call i64 @strlen(i8* %108) #4
  %110 = icmp ult i64 %107, %109
  br i1 %110, label %111, label %149

111:                                              ; preds = %105
  %112 = load i32, i32* %5, align 4
  %113 = sext i32 %112 to i64
  %114 = getelementptr inbounds [500 x i8], [500 x i8]* %2, i64 0, i64 %113
  %115 = load i8, i8* %114, align 1
  %116 = sext i8 %115 to i32
  %117 = icmp eq i32 %116, 40
  br i1 %117, label %118, label %128

118:                                              ; preds = %111
  %119 = load i32, i32* %5, align 4
  %120 = sext i32 %119 to i64
  %121 = getelementptr inbounds [500 x i32], [500 x i32]* %8, i64 0, i64 %120
  %122 = load i32, i32* %121, align 4
  %123 = icmp eq i32 %122, 0
  br i1 %123, label %124, label %128

124:                                              ; preds = %118
  %125 = load i32, i32* %5, align 4
  %126 = sext i32 %125 to i64
  %127 = getelementptr inbounds [500 x i8], [500 x i8]* %3, i64 0, i64 %126
  store i8 36, i8* %127, align 1
  br label %128

128:                                              ; preds = %124, %118, %111
  %129 = load i32, i32* %5, align 4
  %130 = sext i32 %129 to i64
  %131 = getelementptr inbounds [500 x i8], [500 x i8]* %2, i64 0, i64 %130
  %132 = load i8, i8* %131, align 1
  %133 = sext i8 %132 to i32
  %134 = icmp eq i32 %133, 41
  br i1 %134, label %135, label %145

135:                                              ; preds = %128
  %136 = load i32, i32* %5, align 4
  %137 = sext i32 %136 to i64
  %138 = getelementptr inbounds [500 x i32], [500 x i32]* %8, i64 0, i64 %137
  %139 = load i32, i32* %138, align 4
  %140 = icmp eq i32 %139, 0
  br i1 %140, label %141, label %145

141:                                              ; preds = %135
  %142 = load i32, i32* %5, align 4
  %143 = sext i32 %142 to i64
  %144 = getelementptr inbounds [500 x i8], [500 x i8]* %3, i64 0, i64 %143
  store i8 63, i8* %144, align 1
  br label %145

145:                                              ; preds = %141, %135, %128
  br label %146

146:                                              ; preds = %145
  %147 = load i32, i32* %5, align 4
  %148 = add nsw i32 %147, 1
  store i32 %148, i32* %5, align 4
  br label %105

149:                                              ; preds = %105
  %150 = getelementptr inbounds [500 x i8], [500 x i8]* %2, i64 0, i64 0
  %151 = getelementptr inbounds [500 x i8], [500 x i8]* %3, i64 0, i64 0
  %152 = call i32 (i8*, ...) @printf(i8* getelementptr inbounds ([7 x i8], [7 x i8]* @.str.1, i64 0, i64 0), i8* %150, i8* %151)
  store i32 0, i32* %5, align 4
  br label %153

153:                                              ; preds = %163, %149
  %154 = load i32, i32* %5, align 4
  %155 = icmp slt i32 %154, 500
  br i1 %155, label %156, label %166

156:                                              ; preds = %153
  %157 = load i32, i32* %5, align 4
  %158 = sext i32 %157 to i64
  %159 = getelementptr inbounds [500 x i8], [500 x i8]* %2, i64 0, i64 %158
  store i8 0, i8* %159, align 1
  %160 = load i32, i32* %5, align 4
  %161 = sext i32 %160 to i64
  %162 = getelementptr inbounds [500 x i32], [500 x i32]* %8, i64 0, i64 %161
  store i32 0, i32* %162, align 4
  br label %163

163:                                              ; preds = %156
  %164 = load i32, i32* %5, align 4
  %165 = add nsw i32 %164, 1
  store i32 %165, i32* %5, align 4
  br label %153

166:                                              ; preds = %153
  br label %26

167:                                              ; preds = %26
  %168 = load i32, i32* %1, align 4
  ret i32 %168
}

; Function Attrs: argmemonly nounwind willreturn
declare void @llvm.memset.p0i8.i64(i8* nocapture writeonly, i8, i64, i1 immarg) #1

declare dso_local i32 @__isoc99_scanf(i8*, ...) #2

; Function Attrs: nounwind readonly
declare dso_local i64 @strlen(i8*) #3

declare dso_local i32 @printf(i8*, ...) #2


!llvm.module.flags = !{!0}
!llvm.ident = !{!1}

!0 = !{i32 1, !"wchar_size", i32 4}
!1 = !{!"clang version 10.0.0-4ubuntu1 "}
